; Function Attrs: nounwind uwtable
define internal noundef ptr @test_lock_benchmark(ptr readnone captures(none) %0, ptr readnone captures(none) %1) #0 {
  %3 = tail call fastcc ptr @_testinternalcapi_benchmark_locks_impl(i64 noundef 1, i32 noundef 1, i32 noundef 1, i32 noundef 100)
  %4 = icmp eq ptr %3, null
  br i1 %4, label %Py_DECREF.exit, label %5

5:                                                ; preds = %2
  %6 = load i32, ptr %3, align 8, !tbaa !26
  %.not.i = icmp sgt i32 %6, -1
  br i1 %.not.i, label %7, label %Py_DECREF.exit

7:                                                ; preds = %5
  %8 = add nsw i32 %6, -1
  store i32 %8, ptr %3, align 8, !tbaa !26
  %9 = icmp eq i32 %8, 0
  br i1 %9, label %10, label %Py_DECREF.exit

10:                                               ; preds = %7
  tail call void @_Py_Dealloc(ptr noundef nonnull %3) #6
  br label %Py_DECREF.exit

Py_DECREF.exit:                                   ; preds = %10, %7, %5, %2
  %.0 = phi ptr [ null, %2 ], [ @_Py_NoneStruct, %5 ], [ @_Py_NoneStruct, %7 ], [ @_Py_NoneStruct, %10 ]
  ret ptr %.0
}